target datalayout = "e-m:e-p270:32:32-p271:32:32-p272:64:64-i64:64-i128:128-f80:128-n8:16:32:64-S128"
target triple = "x86_64-pc-linux-gnu"

%struct.GCtrace = type { %struct.GCRef, i8, i8, i16, i32, i32, %struct.GCRef, ptr, i32, i32, ptr, ptr, %struct.GCRef, %struct.MRef, i32, i32, ptr, i32, i16, i16, i16, i16, i16, i16, i16, i8, i8, i8, i8 }
%struct.GCRef = type { i64 }
%struct.MRef = type { i64 }
%struct.jit_State = type { %struct.GCtrace, ptr, ptr, ptr, ptr, ptr, ptr, i32, i32, i32, i8, i8, %struct.IRType1, i8, %struct.FoldState, ptr, i32, i32, i32, i32, i32, i32, i32, [1 x i32], [5 x %union.TValue], [3 x %union.TValue], ptr, i32, i32, i32, i32, ptr, ptr, i32, i32, i8, ptr, i32, i32, i16, [101 x i16], [258 x i32], [15 x i32], [16 x ptr], [64 x %struct.HotPenalty], i32, [16 x %struct.BPropEntry], i32, %struct.ScEvEntry, ptr, i32, i32, i32, ptr, i32, i32, ptr, ptr, ptr, i64, i64, %union.TValue, ptr, i32, i32 }
%struct.IRType1 = type { i8 }
%struct.FoldState = type { %union.IRIns, [2 x %union.IRIns], [2 x %union.IRIns] }
%union.IRIns = type { %struct.GCRef }
%struct.HotPenalty = type { %struct.MRef, i16, i16 }
%struct.BPropEntry = type { i16, i16, i32 }
%struct.ScEvEntry = type { %struct.MRef, i16, i16, i16, i16, %struct.IRType1, i8 }
%union.TValue = type { i64 }
%struct.ASMState = type { [32 x i32], ptr, ptr, ptr, ptr, %struct.x86ModRM, i32, i32, i32, i32, i32, i32, i32, i32, i32, i32, i32, i32, i32, i32, i32, i32, i64, i64, i32, i32, i32, i32, i32, ptr, ptr, ptr, ptr, ptr, ptr, ptr, ptr, ptr, [32 x i16], [250 x i16] }
%struct.x86ModRM = type { i32, i8, i8, i8 }
%struct.anon.0 = type { i32, %struct.IRType1, i8, i8, i8 }
%struct.GG_State = type { %struct.lua_State, %struct.global_State, %struct.jit_State, [64 x i16], [243 x ptr], [57 x i32] }
%struct.lua_State = type { %struct.GCRef, i8, i8, i8, i8, %struct.MRef, %struct.GCRef, ptr, ptr, %struct.MRef, %struct.MRef, %struct.GCRef, %struct.GCRef, ptr, i32 }
%struct.global_State = type { ptr, ptr, %struct.GCState, %struct.GCstr, i8, i8, i8, i8, %struct.StrInternState, i32, %struct.GCRef, %struct.SBuf, %union.TValue, %union.TValue, %struct.Node, %union.TValue, %struct.GCupval, i32, i32, ptr, ptr, ptr, i32, i32, %struct.GCRef, %struct.MRef, %struct.MRef, %struct.PRNGState, [39 x %struct.GCRef] }
%struct.GCState = type { i64, i64, i8, i8, i8, i8, i32, %struct.GCRef, %struct.MRef, %struct.GCRef, %struct.GCRef, %struct.GCRef, %struct.GCRef, i64, i64, i32, i32, %struct.MRef }
%struct.GCstr = type { %struct.GCRef, i8, i8, i8, i8, i32, i32, i32 }
%struct.StrInternState = type { ptr, i32, i32, i32, i8, i8, i8, i8, i64 }
%struct.SBuf = type { ptr, ptr, ptr, %struct.MRef }
%struct.Node = type { %union.TValue, %union.TValue, %struct.MRef }
%struct.GCupval = type { %struct.GCRef, i8, i8, i8, i8, %union.anon, %struct.MRef, i32 }
%union.anon = type { %struct.anon.3 }
%struct.anon.3 = type { %struct.GCRef, %struct.GCRef }
%struct.PRNGState = type { [4 x i64] }
%struct.anon = type { i16, i16, i16, i16 }
%struct.GCfuncL = type { %struct.GCRef, i8, i8, i8, i8, %struct.GCRef, %struct.GCRef, %struct.MRef, [1 x %struct.GCRef] }

; Function Attrs: nounwind uwtable
define internal i32 @ra_alloc1(ptr noundef %0, i32 noundef %1, i32 noundef %2) #0 {
  %4 = alloca ptr, align 8
  %5 = alloca i32, align 4
  %6 = alloca i32, align 4
  %7 = alloca i32, align 4
  store ptr %0, ptr %4, align 8, !tbaa !33
  store i32 %1, ptr %5, align 4, !tbaa !11
  store i32 %2, ptr %6, align 4, !tbaa !11
  call void @llvm.lifetime.start.p0(i64 4, ptr %7) #11
  %8 = load ptr, ptr %4, align 8, !tbaa !33
  %9 = getelementptr inbounds nuw %struct.ASMState, ptr %8, i32 0, i32 3
  %10 = load ptr, ptr %9, align 8, !tbaa !70
  %11 = load i32, ptr %5, align 4, !tbaa !11
  %12 = zext i32 %11 to i64
  %13 = getelementptr inbounds nuw %union.IRIns, ptr %10, i64 %12
  %14 = getelementptr inbounds nuw %struct.anon.0, ptr %13, i32 0, i32 3
  %15 = load i8, ptr %14, align 2, !tbaa !25
  %16 = zext i8 %15 to i32
  store i32 %16, ptr %7, align 4, !tbaa !11
  %17 = load i32, ptr %7, align 4, !tbaa !11
  %18 = and i32 %17, 128
  %19 = icmp ne i32 %18, 0
  br i1 %19, label %20, label %25

20:                                               ; preds = %3
  %21 = load ptr, ptr %4, align 8, !tbaa !33
  %22 = load i32, ptr %5, align 4, !tbaa !11
  %23 = load i32, ptr %6, align 4, !tbaa !11
  %24 = call i32 @ra_allocref(ptr noundef %21, i32 noundef %22, i32 noundef %23)
  store i32 %24, ptr %7, align 4, !tbaa !11
  br label %25

25:                                               ; preds = %20, %3
  %26 = load i32, ptr %7, align 4, !tbaa !11
  %27 = shl i32 1, %26
  %28 = xor i32 %27, -1
  %29 = load ptr, ptr %4, align 8, !tbaa !33
  %30 = getelementptr inbounds nuw %struct.ASMState, ptr %29, i32 0, i32 8
  %31 = load i32, ptr %30, align 8, !tbaa !140
  %32 = and i32 %31, %28
  store i32 %32, ptr %30, align 8, !tbaa !140
  %33 = load i32, ptr %7, align 4, !tbaa !11
  call void @llvm.lifetime.end.p0(i64 4, ptr %7) #11
  ret i32 %33
}

; Function Attrs: nounwind uwtable
define internal void @asm_fuseahuref(ptr noundef %0, i32 noundef %1, i32 noundef %2) #0 {
  %4 = alloca ptr, align 8
  %5 = alloca i32, align 4
  %6 = alloca i32, align 4
  %7 = alloca ptr, align 8
  %8 = alloca i32, align 4
  %9 = alloca ptr, align 8
  %10 = alloca ptr, align 8
  %11 = alloca i64, align 8
  store ptr %0, ptr %4, align 8, !tbaa !33
  store i32 %1, ptr %5, align 4, !tbaa !11
  store i32 %2, ptr %6, align 4, !tbaa !11
  call void @llvm.lifetime.start.p0(i64 8, ptr %7) #11
  %12 = load ptr, ptr %4, align 8, !tbaa !33
  %13 = getelementptr inbounds nuw %struct.ASMState, ptr %12, i32 0, i32 3
  %14 = load ptr, ptr %13, align 8, !tbaa !70
  %15 = load i32, ptr %5, align 4, !tbaa !11
  %16 = zext i32 %15 to i64
  %17 = getelementptr inbounds nuw %union.IRIns, ptr %14, i64 %16
  store ptr %17, ptr %7, align 8, !tbaa !37
  %18 = load ptr, ptr %7, align 8, !tbaa !37
  %19 = getelementptr inbounds nuw %struct.anon.0, ptr %18, i32 0, i32 3
  %20 = load i8, ptr %19, align 2, !tbaa !25
  %21 = zext i8 %20 to i32
  %22 = and i32 %21, 128
  %23 = icmp ne i32 %22, 0
  br i1 %23, label %24, label %178

24:                                               ; preds = %3
  %25 = load ptr, ptr %7, align 8, !tbaa !37
  %26 = getelementptr inbounds nuw %struct.anon.0, ptr %25, i32 0, i32 2
  %27 = load i8, ptr %26, align 1, !tbaa !25
  %28 = zext i8 %27 to i32
  switch i32 %28, label %176 [
    i32 56, label %29
    i32 57, label %40
    i32 61, label %78
    i32 63, label %150
  ]

29:                                               ; preds = %24
  %30 = load i32, ptr %5, align 4, !tbaa !11
  %31 = load ptr, ptr %4, align 8, !tbaa !33
  %32 = getelementptr inbounds nuw %struct.ASMState, ptr %31, i32 0, i32 24
  %33 = load i32, ptr %32, align 8, !tbaa !78
  %34 = icmp ugt i32 %30, %33
  br i1 %34, label %35, label %39

35:                                               ; preds = %29
  %36 = load ptr, ptr %4, align 8, !tbaa !33
  %37 = load ptr, ptr %7, align 8, !tbaa !37
  %38 = load i32, ptr %6, align 4, !tbaa !11
  call void @asm_fusearef(ptr noundef %36, ptr noundef %37, i32 noundef %38)
  store i32 1, ptr %8, align 4
  br label %193

39:                                               ; preds = %29
  br label %177

40:                                               ; preds = %24
  %41 = load i32, ptr %5, align 4, !tbaa !11
  %42 = load ptr, ptr %4, align 8, !tbaa !33
  %43 = getelementptr inbounds nuw %struct.ASMState, ptr %42, i32 0, i32 24
  %44 = load i32, ptr %43, align 8, !tbaa !78
  %45 = icmp ugt i32 %41, %44
  br i1 %45, label %46, label %77

46:                                               ; preds = %40
  %47 = load ptr, ptr %4, align 8, !tbaa !33
  %48 = load ptr, ptr %7, align 8, !tbaa !37
  %49 = getelementptr inbounds nuw %struct.anon, ptr %48, i32 0, i32 0
  %50 = load i16, ptr %49, align 8, !tbaa !25
  %51 = zext i16 %50 to i32
  %52 = load i32, ptr %6, align 4, !tbaa !11
  %53 = call i32 @ra_alloc1(ptr noundef %47, i32 noundef %51, i32 noundef %52)
  %54 = trunc i32 %53 to i8
  %55 = load ptr, ptr %4, align 8, !tbaa !33
  %56 = getelementptr inbounds nuw %struct.ASMState, ptr %55, i32 0, i32 5
  %57 = getelementptr inbounds nuw %struct.x86ModRM, ptr %56, i32 0, i32 1
  store i8 %54, ptr %57, align 4, !tbaa !89
  %58 = load ptr, ptr %4, align 8, !tbaa !33
  %59 = getelementptr inbounds nuw %struct.ASMState, ptr %58, i32 0, i32 3
  %60 = load ptr, ptr %59, align 8, !tbaa !70
  %61 = load ptr, ptr %7, align 8, !tbaa !37
  %62 = getelementptr inbounds nuw %struct.anon, ptr %61, i32 0, i32 1
  %63 = load i16, ptr %62, align 2, !tbaa !25
  %64 = zext i16 %63 to i64
  %65 = getelementptr inbounds nuw %union.IRIns, ptr %60, i64 %64
  %66 = getelementptr inbounds nuw %struct.anon, ptr %65, i32 0, i32 1
  %67 = load i16, ptr %66, align 2, !tbaa !25
  %68 = zext i16 %67 to i64
  %69 = mul i64 %68, 24
  %70 = trunc i64 %69 to i32
  %71 = load ptr, ptr %4, align 8, !tbaa !33
  %72 = getelementptr inbounds nuw %struct.ASMState, ptr %71, i32 0, i32 5
  %73 = getelementptr inbounds nuw %struct.x86ModRM, ptr %72, i32 0, i32 0
  store i32 %70, ptr %73, align 8, !tbaa !184
  %74 = load ptr, ptr %4, align 8, !tbaa !33
  %75 = getelementptr inbounds nuw %struct.ASMState, ptr %74, i32 0, i32 5
  %76 = getelementptr inbounds nuw %struct.x86ModRM, ptr %75, i32 0, i32 2
  store i8 -128, ptr %76, align 1, !tbaa !183
  store i32 1, ptr %8, align 4
  br label %193

77:                                               ; preds = %40
  br label %177

78:                                               ; preds = %24
  %79 = load ptr, ptr %7, align 8, !tbaa !37
  %80 = getelementptr inbounds nuw %struct.anon, ptr %79, i32 0, i32 0
  %81 = load i16, ptr %80, align 8, !tbaa !25
  %82 = zext i16 %81 to i32
  %83 = icmp slt i32 %82, 32768
  br i1 %83, label %84, label %149

84:                                               ; preds = %78
  call void @llvm.lifetime.start.p0(i64 8, ptr %9) #11
  %85 = load ptr, ptr %4, align 8, !tbaa !33
  %86 = getelementptr inbounds nuw %struct.ASMState, ptr %85, i32 0, i32 3
  %87 = load ptr, ptr %86, align 8, !tbaa !70
  %88 = load ptr, ptr %7, align 8, !tbaa !37
  %89 = getelementptr inbounds nuw %struct.anon, ptr %88, i32 0, i32 0
  %90 = load i16, ptr %89, align 8, !tbaa !25
  %91 = zext i16 %90 to i64
  %92 = getelementptr inbounds nuw %union.IRIns, ptr %87, i64 %91
  %93 = getelementptr inbounds %union.IRIns, ptr %92, i64 1
  %94 = getelementptr inbounds nuw %struct.GCRef, ptr %93, i32 0, i32 0
  %95 = load i64, ptr %94, align 8, !tbaa !25
  %96 = inttoptr i64 %95 to ptr
  store ptr %96, ptr %9, align 8, !tbaa !185
  call void @llvm.lifetime.start.p0(i64 8, ptr %10) #11
  %97 = load ptr, ptr %9, align 8, !tbaa !185
  %98 = getelementptr inbounds nuw %struct.GCfuncL, ptr %97, i32 0, i32 8
  %99 = load ptr, ptr %7, align 8, !tbaa !37
  %100 = getelementptr inbounds nuw %struct.anon, ptr %99, i32 0, i32 1
  %101 = load i16, ptr %100, align 2, !tbaa !25
  %102 = zext i16 %101 to i32
  %103 = ashr i32 %102, 8
  %104 = sext i32 %103 to i64
  %105 = getelementptr inbounds [1 x %struct.GCRef], ptr %98, i64 0, i64 %104
  %106 = getelementptr inbounds nuw %struct.GCRef, ptr %105, i32 0, i32 0
  %107 = load i64, ptr %106, align 8, !tbaa !25
  %108 = inttoptr i64 %107 to ptr
  store ptr %108, ptr %10, align 8, !tbaa !206
  call void @llvm.lifetime.start.p0(i64 8, ptr %11) #11
  %109 = load ptr, ptr %10, align 8, !tbaa !206
  %110 = getelementptr inbounds nuw %struct.GCupval, ptr %109, i32 0, i32 5
  %111 = ptrtoint ptr %110 to i64
  %112 = load ptr, ptr %4, align 8, !tbaa !33
  %113 = getelementptr inbounds nuw %struct.ASMState, ptr %112, i32 0, i32 4
  %114 = load ptr, ptr %113, align 8, !tbaa !51
  %115 = getelementptr inbounds i8, ptr %114, i64 -832
  %116 = getelementptr inbounds nuw %struct.GG_State, ptr %115, i32 0, i32 4
  %117 = getelementptr inbounds [243 x ptr], ptr %116, i64 0, i64 0
  %118 = ptrtoint ptr %117 to i64
  %119 = sub i64 %111, %118
  store i64 %119, ptr %11, align 8, !tbaa !26
  %120 = load i64, ptr %11, align 8, !tbaa !26
  %121 = load i64, ptr %11, align 8, !tbaa !26
  %122 = trunc i64 %121 to i32
  %123 = sext i32 %122 to i64
  %124 = icmp eq i64 %120, %123
  br i1 %124, label %125, label %145

125:                                              ; preds = %84
  %126 = load i64, ptr %11, align 8, !tbaa !26
  %127 = add nsw i64 %126, 4
  %128 = load i64, ptr %11, align 8, !tbaa !26
  %129 = add nsw i64 %128, 4
  %130 = trunc i64 %129 to i32
  %131 = sext i32 %130 to i64
  %132 = icmp eq i64 %127, %131
  br i1 %132, label %133, label %145

133:                                              ; preds = %125
  %134 = load i64, ptr %11, align 8, !tbaa !26
  %135 = trunc i64 %134 to i32
  %136 = load ptr, ptr %4, align 8, !tbaa !33
  %137 = getelementptr inbounds nuw %struct.ASMState, ptr %136, i32 0, i32 5
  %138 = getelementptr inbounds nuw %struct.x86ModRM, ptr %137, i32 0, i32 0
  store i32 %135, ptr %138, align 8, !tbaa !184
  %139 = load ptr, ptr %4, align 8, !tbaa !33
  %140 = getelementptr inbounds nuw %struct.ASMState, ptr %139, i32 0, i32 5
  %141 = getelementptr inbounds nuw %struct.x86ModRM, ptr %140, i32 0, i32 1
  store i8 14, ptr %141, align 4, !tbaa !89
  %142 = load ptr, ptr %4, align 8, !tbaa !33
  %143 = getelementptr inbounds nuw %struct.ASMState, ptr %142, i32 0, i32 5
  %144 = getelementptr inbounds nuw %struct.x86ModRM, ptr %143, i32 0, i32 2
  store i8 -128, ptr %144, align 1, !tbaa !183
  store i32 1, ptr %8, align 4
  br label %146

145:                                              ; preds = %125, %84
  store i32 0, ptr %8, align 4
  br label %146

146:                                              ; preds = %145, %133
  call void @llvm.lifetime.end.p0(i64 8, ptr %11) #11
  call void @llvm.lifetime.end.p0(i64 8, ptr %10) #11
  call void @llvm.lifetime.end.p0(i64 8, ptr %9) #11
  %147 = load i32, ptr %8, align 4
  switch i32 %147, label %193 [
    i32 0, label %148
  ]

148:                                              ; preds = %146
  br label %149

149:                                              ; preds = %148, %78
  br label %177

150:                                              ; preds = %24
  %151 = load ptr, ptr %4, align 8, !tbaa !33
  %152 = getelementptr inbounds nuw %struct.ASMState, ptr %151, i32 0, i32 4
  %153 = load ptr, ptr %152, align 8, !tbaa !51
  %154 = getelementptr inbounds i8, ptr %153, i64 -832
  %155 = getelementptr inbounds nuw %struct.GG_State, ptr %154, i32 0, i32 1
  %156 = getelementptr inbounds nuw %struct.global_State, ptr %155, i32 0, i32 12
  %157 = ptrtoint ptr %156 to i64
  %158 = load ptr, ptr %4, align 8, !tbaa !33
  %159 = getelementptr inbounds nuw %struct.ASMState, ptr %158, i32 0, i32 4
  %160 = load ptr, ptr %159, align 8, !tbaa !51
  %161 = getelementptr inbounds i8, ptr %160, i64 -832
  %162 = getelementptr inbounds nuw %struct.GG_State, ptr %161, i32 0, i32 4
  %163 = getelementptr inbounds [243 x ptr], ptr %162, i64 0, i64 0
  %164 = ptrtoint ptr %163 to i64
  %165 = sub i64 %157, %164
  %166 = trunc i64 %165 to i32
  %167 = load ptr, ptr %4, align 8, !tbaa !33
  %168 = getelementptr inbounds nuw %struct.ASMState, ptr %167, i32 0, i32 5
  %169 = getelementptr inbounds nuw %struct.x86ModRM, ptr %168, i32 0, i32 0
  store i32 %166, ptr %169, align 8, !tbaa !184
  %170 = load ptr, ptr %4, align 8, !tbaa !33
  %171 = getelementptr inbounds nuw %struct.ASMState, ptr %170, i32 0, i32 5
  %172 = getelementptr inbounds nuw %struct.x86ModRM, ptr %171, i32 0, i32 1
  store i8 14, ptr %172, align 4, !tbaa !89
  %173 = load ptr, ptr %4, align 8, !tbaa !33
  %174 = getelementptr inbounds nuw %struct.ASMState, ptr %173, i32 0, i32 5
  %175 = getelementptr inbounds nuw %struct.x86ModRM, ptr %174, i32 0, i32 2
  store i8 -128, ptr %175, align 1, !tbaa !183
  store i32 1, ptr %8, align 4
  br label %193

176:                                              ; preds = %24
  br label %177

177:                                              ; preds = %176, %149, %77, %39
  br label %178

178:                                              ; preds = %177, %3
  %179 = load ptr, ptr %4, align 8, !tbaa !33
  %180 = load i32, ptr %5, align 4, !tbaa !11
  %181 = load i32, ptr %6, align 4, !tbaa !11
  %182 = call i32 @ra_alloc1(ptr noundef %179, i32 noundef %180, i32 noundef %181)
  %183 = trunc i32 %182 to i8
  %184 = load ptr, ptr %4, align 8, !tbaa !33
  %185 = getelementptr inbounds nuw %struct.ASMState, ptr %184, i32 0, i32 5
  %186 = getelementptr inbounds nuw %struct.x86ModRM, ptr %185, i32 0, i32 1
  store i8 %183, ptr %186, align 4, !tbaa !89
  %187 = load ptr, ptr %4, align 8, !tbaa !33
  %188 = getelementptr inbounds nuw %struct.ASMState, ptr %187, i32 0, i32 5
  %189 = getelementptr inbounds nuw %struct.x86ModRM, ptr %188, i32 0, i32 0
  store i32 0, ptr %189, align 8, !tbaa !184
  %190 = load ptr, ptr %4, align 8, !tbaa !33
  %191 = getelementptr inbounds nuw %struct.ASMState, ptr %190, i32 0, i32 5
  %192 = getelementptr inbounds nuw %struct.x86ModRM, ptr %191, i32 0, i32 2
  store i8 -128, ptr %192, align 1, !tbaa !183
  store i32 0, ptr %8, align 4
  br label %193

193:                                              ; preds = %178, %150, %146, %46, %35
  call void @llvm.lifetime.end.p0(i64 8, ptr %7) #11
  %194 = load i32, ptr %8, align 4
  switch i32 %194, label %196 [
    i32 0, label %195
    i32 1, label %195
  ]

195:                                              ; preds = %193, %193
  ret void

196:                                              ; preds = %193
  unreachable
}