; Function Attrs: nounwind uwtable
define internal fastcc void @asm_fuseahuref(ptr noundef nonnull captures(none) %0, i32 noundef range(i32 0, 65536) %1, i32 noundef %2) unnamed_addr #0 {
  %4 = getelementptr inbounds nuw i8, ptr %0, i64 144
  %5 = load ptr, ptr %4, align 8, !tbaa !68
  %6 = zext nneg i32 %1 to i64
  %7 = getelementptr inbounds nuw %union.IRIns, ptr %5, i64 %6
  %8 = getelementptr inbounds nuw i8, ptr %7, i64 6
  %9 = load i8, ptr %8, align 2, !tbaa !20
  %.not = icmp sgt i8 %9, -1
  br i1 %.not, label %83, label %10

10:                                               ; preds = %3
  %11 = getelementptr inbounds nuw i8, ptr %7, i64 5
  %12 = load i8, ptr %11, align 1, !tbaa !20
  switch i8 %12, label %85 [
    i8 56, label %13
    i8 57, label %18
    i8 61, label %50
    i8 63, label %79
  ]

13:                                               ; preds = %10
  %14 = getelementptr inbounds nuw i8, ptr %0, i64 248
  %15 = load i32, ptr %14, align 8, !tbaa !76
  %16 = icmp ugt i32 %1, %15
  br i1 %16, label %17, label %85

17:                                               ; preds = %13
  tail call fastcc void @asm_fusearef(ptr noundef %0, ptr noundef nonnull %7, i32 noundef %2)
  br label %96

18:                                               ; preds = %10
  %19 = getelementptr inbounds nuw i8, ptr %0, i64 248
  %20 = load i32, ptr %19, align 8, !tbaa !76
  %21 = icmp ugt i32 %1, %20
  br i1 %21, label %22, label %85

22:                                               ; preds = %18
  %23 = load i16, ptr %7, align 8, !tbaa !20
  %24 = zext i16 %23 to i64
  %25 = getelementptr inbounds nuw %union.IRIns, ptr %5, i64 %24
  %26 = getelementptr inbounds nuw i8, ptr %25, i64 6
  %27 = load i8, ptr %26, align 2, !tbaa !20
  %28 = zext nneg i8 %27 to i32
  %.not.i = icmp sgt i8 %27, -1
  br i1 %.not.i, label %ra_alloc1.exit, label %29

29:                                               ; preds = %22
  %30 = zext i16 %23 to i32
  %31 = tail call fastcc i32 @ra_allocref(ptr noundef nonnull %0, i32 noundef %30, i32 noundef %2)
  %.pre = load ptr, ptr %4, align 8, !tbaa !68
  br label %ra_alloc1.exit

ra_alloc1.exit:                                   ; preds = %22, %29
  %32 = phi ptr [ %.pre, %29 ], [ %5, %22 ]
  %.0.i = phi i32 [ %31, %29 ], [ %28, %22 ]
  %33 = shl nuw i32 1, %.0.i
  %34 = xor i32 %33, -1
  %35 = getelementptr inbounds nuw i8, ptr %0, i64 176
  %36 = load i32, ptr %35, align 8, !tbaa !80
  %37 = and i32 %36, %34
  store i32 %37, ptr %35, align 8, !tbaa !80
  %38 = trunc nuw i32 %.0.i to i8
  %39 = getelementptr inbounds nuw i8, ptr %0, i64 160
  %40 = getelementptr inbounds nuw i8, ptr %0, i64 164
  store i8 %38, ptr %40, align 4, !tbaa !67
  %41 = getelementptr inbounds nuw i8, ptr %7, i64 2
  %42 = load i16, ptr %41, align 2, !tbaa !20
  %43 = zext i16 %42 to i64
  %44 = getelementptr inbounds nuw %union.IRIns, ptr %32, i64 %43
  %45 = getelementptr inbounds nuw i8, ptr %44, i64 2
  %46 = load i16, ptr %45, align 2, !tbaa !20
  %47 = zext i16 %46 to i32
  %48 = mul nuw nsw i32 %47, 24
  store i32 %48, ptr %39, align 8, !tbaa !131
  %49 = getelementptr inbounds nuw i8, ptr %0, i64 165
  store i8 -128, ptr %49, align 1, !tbaa !132
  br label %96

50:                                               ; preds = %10
  %51 = load i16, ptr %7, align 8, !tbaa !20
  %52 = icmp sgt i16 %51, -1
  br i1 %52, label %53, label %85

53:                                               ; preds = %50
  %54 = zext nneg i16 %51 to i64
  %55 = getelementptr inbounds nuw %union.IRIns, ptr %5, i64 %54
  %56 = getelementptr inbounds nuw i8, ptr %55, i64 8
  %57 = load i64, ptr %56, align 8, !tbaa !20
  %58 = inttoptr i64 %57 to ptr
  %59 = getelementptr inbounds nuw i8, ptr %58, i64 40
  %60 = getelementptr inbounds nuw i8, ptr %7, i64 2
  %61 = load i16, ptr %60, align 2, !tbaa !20
  %62 = lshr i16 %61, 8
  %63 = zext nneg i16 %62 to i64
  %64 = getelementptr inbounds nuw [1 x %struct.GCRef], ptr %59, i64 0, i64 %63
  %65 = load i64, ptr %64, align 8, !tbaa !20
  %66 = add nuw i64 %65, 16
  %67 = getelementptr inbounds nuw i8, ptr %0, i64 152
  %68 = load ptr, ptr %67, align 8, !tbaa !44
  %69 = getelementptr inbounds nuw i8, ptr %68, i64 3240
  %70 = ptrtoint ptr %69 to i64
  %71 = sub i64 %66, %70
  %72 = add i64 %71, 2147483648
  %73 = add i64 %71, 2147483652
  %74 = or i64 %72, %73
  %or.cond = icmp ult i64 %74, 4294967296
  br i1 %or.cond, label %.critedge, label %85

.critedge:                                        ; preds = %53
  %75 = trunc i64 %71 to i32
  %76 = getelementptr inbounds nuw i8, ptr %0, i64 160
  store i32 %75, ptr %76, align 8, !tbaa !131
  %77 = getelementptr inbounds nuw i8, ptr %0, i64 164
  store i8 14, ptr %77, align 4, !tbaa !67
  %78 = getelementptr inbounds nuw i8, ptr %0, i64 165
  store i8 -128, ptr %78, align 1, !tbaa !132
  br label %96

79:                                               ; preds = %10
  %80 = getelementptr inbounds nuw i8, ptr %0, i64 160
  store i32 -3744, ptr %80, align 8, !tbaa !131
  %81 = getelementptr inbounds nuw i8, ptr %0, i64 164
  store i8 14, ptr %81, align 4, !tbaa !67
  %82 = getelementptr inbounds nuw i8, ptr %0, i64 165
  store i8 -128, ptr %82, align 1, !tbaa !132
  br label %96

83:                                               ; preds = %3
  %84 = zext nneg i8 %9 to i32
  br label %ra_alloc1.exit49

85:                                               ; preds = %53, %13, %18, %50, %10
  %86 = tail call fastcc i32 @ra_allocref(ptr noundef nonnull %0, i32 noundef %1, i32 noundef %2)
  br label %ra_alloc1.exit49

ra_alloc1.exit49:                                 ; preds = %83, %85
  %.0.i48 = phi i32 [ %86, %85 ], [ %84, %83 ]
  %87 = shl nuw i32 1, %.0.i48
  %88 = xor i32 %87, -1
  %89 = getelementptr inbounds nuw i8, ptr %0, i64 176
  %90 = load i32, ptr %89, align 8, !tbaa !80
  %91 = and i32 %90, %88
  store i32 %91, ptr %89, align 8, !tbaa !80
  %92 = trunc nuw i32 %.0.i48 to i8
  %93 = getelementptr inbounds nuw i8, ptr %0, i64 160
  %94 = getelementptr inbounds nuw i8, ptr %0, i64 164
  store i8 %92, ptr %94, align 4, !tbaa !67
  store i32 0, ptr %93, align 8, !tbaa !131
  %95 = getelementptr inbounds nuw i8, ptr %0, i64 165
  store i8 -128, ptr %95, align 1, !tbaa !132
  br label %96

96:                                               ; preds = %.critedge, %ra_alloc1.exit49, %79, %ra_alloc1.exit, %17
  ret void
}